(lp0
cnumpy.core.multiarray
scalar
p1
(cnumpy
dtype
p2
(S'f8'
p3
I0
I1
tp4
Rp5
(I3
S'<'
p6
NNNI-1
I-1
I0
tp7
bS'\xb9\xdb\xb7\n\xbe\x1f\xef?'
p8
tp9
Rp10
ag1
(g5
S'\xb1RAE\xd5\xaf\xee?'
p11
tp12
Rp13
aF172.99198603630066
a.