(lp0
cnumpy.core.multiarray
scalar
p1
(cnumpy
dtype
p2
(S'f8'
p3
I0
I1
tp4
Rp5
(I3
S'<'
p6
NNNI-1
I-1
I0
tp7
bS'\x9a<\x01\xd1\xf9\xea\xee?'
p8
tp9
Rp10
ag1
(g5
S'\x90&\xde\x01\x9e\xb4\xee?'
p11
tp12
Rp13
aF233.0366940498352
a.