(lp0
(lp1
cnumpy.core.multiarray
scalar
p2
(cnumpy
dtype
p3
(S'f8'
p4
I0
I1
tp5
Rp6
(I3
S'<'
p7
NNNI-1
I-1
I0
tp8
bS's\xd9\xe8\x9c\x9f\xe2\xee?'
p9
tp10
Rp11
ag2
(g6
S'dAaP\xa6\xd1\xee?'
p12
tp13
Rp14
ag2
(g6
S'\xfaa\x84\xf0h\xe3\xee?'
p15
tp16
Rp17
ag2
(g6
S'\xa1\xba\xb9\xf8\xdb\x9e\xee?'
p18
tp19
Rp20
ag2
(g6
S'e;\xdfO\x8d\x97\xee?'
p21
tp22
Rp23
ag2
(g6
S'3\x8c\xbbA\xb4V\xec?'
p24
tp25
Rp26
aa(lp27
F683.9901859760284
aF767.8700280189514
aF675.5259449481964
aF710.7821180820465
aF718.8099229335785
aF693.7512340545654
aa.