(lp0
(lp1
cnumpy.core.multiarray
scalar
p2
(cnumpy
dtype
p3
(S'f8'
p4
I0
I1
tp5
Rp6
(I3
S'<'
p7
NNNI-1
I-1
I0
tp8
bS'\x9f\x83\x07\xf1rK\xee?'
p9
tp10
Rp11
ag2
(g6
S'\x02\xbc\xc1g\xe1w\xee?'
p12
tp13
Rp14
ag2
(g6
S'\xb3dHA\xa3\x89\xee?'
p15
tp16
Rp17
ag2
(g6
S'\xd4\xa6\x1fI\xcb\xbe\xee?'
p18
tp19
Rp20
ag2
(g6
S'\xaf\xef\x08w\xde\x88\xee?'
p21
tp22
Rp23
ag2
(g6
S'\xe9\xa0\xb3\xd5\x10\xf4\xee?'
p24
tp25
Rp26
aa(lp27
F581.710116147995
aF706.5773539543152
aF630.6861588954926
aF673.7311038970947
aF698.1807670593262
aF680.4552080631256
aa.