(lp0
(lp1
cnumpy.core.multiarray
scalar
p2
(cnumpy
dtype
p3
(S'f8'
p4
I0
I1
tp5
Rp6
(I3
S'<'
p7
NNNI-1
I-1
I0
tp8
bS'W\x9f</wT\xee?'
p9
tp10
Rp11
ag2
(g6
S'?\x92\x909\x8dK\xee?'
p12
tp13
Rp14
ag2
(g6
S'\x7f9\x9e\xadgL\xee?'
p15
tp16
Rp17
ag2
(g6
S'\x1a\xbeb\x07\xac\xd0\xec?'
p18
tp19
Rp20
ag2
(g6
S'\x9d2s^\xf4t\xed?'
p21
tp22
Rp23
ag2
(g6
S'\xc2=\x0f6\xb2C\xed?'
p24
tp25
Rp26
aa(lp27
F725.1405189037323
aF729.6474311351776
aF765.8479580879211
aF673.7215869426727
aF632.7435190677643
aF670.7424080371857
aa.