(lp0
(lp1
cnumpy.core.multiarray
scalar
p2
(cnumpy
dtype
p3
(S'f8'
p4
I0
I1
tp5
Rp6
(I3
S'<'
p7
NNNI-1
I-1
I0
tp8
bS'\x981\xde\t\xaf\xec\xef?'
p9
tp10
Rp11
ag2
(g6
S'\xc9\xe0]\xb1L\xed\xef?'
p12
tp13
Rp14
ag2
(g6
S'\xc6TKh\xf0\xec\xef?'
p15
tp16
Rp17
ag2
(g6
S'E\x03)\xdf\xe4\xec\xef?'
p18
tp19
Rp20
ag2
(g6
S'\x9a\xd4"\x1c\xc6\xec\xef?'
p21
tp22
Rp23
ag2
(g6
S'J2\x80:X\xed\xef?'
p24
tp25
Rp26
aa(lp27
F645.8386521339417
aF713.3504149913788
aF673.7191820144653
aF635.8606460094452
aF714.6824879646301
aF669.6877219676971
aa.